target datalayout = "e-m:e-p270:32:32-p271:32:32-p272:64:64-i64:64-i128:128-f80:128-n8:16:32:64-S128"
target triple = "x86_64-pc-linux-gnu"

%struct.PHP_MD5_CTX = type { i32, i32, i32, i32, i32, i32, [64 x i8], [16 x i32] }

; Function Attrs: nounwind uwtable
define void @PHP_MD5Final(ptr noundef %0, ptr noundef %1) #0 {
  %3 = alloca ptr, align 8
  %4 = alloca ptr, align 8
  %5 = alloca i32, align 4
  %6 = alloca i32, align 4
  store ptr %0, ptr %3, align 8
  store ptr %1, ptr %4, align 8
  %7 = load ptr, ptr %4, align 8
  %8 = getelementptr inbounds %struct.PHP_MD5_CTX, ptr %7, i32 0, i32 0
  %9 = load i32, ptr %8, align 4
  %10 = and i32 %9, 63
  store i32 %10, ptr %5, align 4
  %11 = load ptr, ptr %4, align 8
  %12 = getelementptr inbounds %struct.PHP_MD5_CTX, ptr %11, i32 0, i32 6
  %13 = load i32, ptr %5, align 4
  %14 = add i32 %13, 1
  store i32 %14, ptr %5, align 4
  %15 = zext i32 %13 to i64
  %16 = getelementptr inbounds [64 x i8], ptr %12, i64 0, i64 %15
  store i8 -128, ptr %16, align 1
  %17 = load i32, ptr %5, align 4
  %18 = sub i32 64, %17
  store i32 %18, ptr %6, align 4
  %19 = load i32, ptr %6, align 4
  %20 = icmp ult i32 %19, 8
  br i1 %20, label %21, label %34

21:                                               ; preds = %2
  %22 = load ptr, ptr %4, align 8
  %23 = getelementptr inbounds %struct.PHP_MD5_CTX, ptr %22, i32 0, i32 6
  %24 = load i32, ptr %5, align 4
  %25 = zext i32 %24 to i64
  %26 = getelementptr inbounds [64 x i8], ptr %23, i64 0, i64 %25
  %27 = load i32, ptr %6, align 4
  %28 = zext i32 %27 to i64
  call void @llvm.memset.p0.i64(ptr align 1 %26, i8 0, i64 %28, i1 false)
  %29 = load ptr, ptr %4, align 8
  %30 = load ptr, ptr %4, align 8
  %31 = getelementptr inbounds %struct.PHP_MD5_CTX, ptr %30, i32 0, i32 6
  %32 = getelementptr inbounds [64 x i8], ptr %31, i64 0, i64 0
  %33 = call ptr @body(ptr noundef %29, ptr noundef %32, i64 noundef 64)
  store i32 0, ptr %5, align 4
  store i32 64, ptr %6, align 4
  br label %34

34:                                               ; preds = %21, %2
  %35 = load ptr, ptr %4, align 8
  %36 = getelementptr inbounds %struct.PHP_MD5_CTX, ptr %35, i32 0, i32 6
  %37 = load i32, ptr %5, align 4
  %38 = zext i32 %37 to i64
  %39 = getelementptr inbounds [64 x i8], ptr %36, i64 0, i64 %38
  %40 = load i32, ptr %6, align 4
  %41 = sub i32 %40, 8
  %42 = zext i32 %41 to i64
  call void @llvm.memset.p0.i64(ptr align 1 %39, i8 0, i64 %42, i1 false)
  %43 = load ptr, ptr %4, align 8
  %44 = getelementptr inbounds %struct.PHP_MD5_CTX, ptr %43, i32 0, i32 0
  %45 = load i32, ptr %44, align 4
  %46 = shl i32 %45, 3
  store i32 %46, ptr %44, align 4
  %47 = load ptr, ptr %4, align 8
  %48 = getelementptr inbounds %struct.PHP_MD5_CTX, ptr %47, i32 0, i32 0
  %49 = load i32, ptr %48, align 4
  %50 = trunc i32 %49 to i8
  %51 = load ptr, ptr %4, align 8
  %52 = getelementptr inbounds %struct.PHP_MD5_CTX, ptr %51, i32 0, i32 6
  %53 = getelementptr inbounds [64 x i8], ptr %52, i64 0, i64 56
  store i8 %50, ptr %53, align 4
  %54 = load ptr, ptr %4, align 8
  %55 = getelementptr inbounds %struct.PHP_MD5_CTX, ptr %54, i32 0, i32 0
  %56 = load i32, ptr %55, align 4
  %57 = lshr i32 %56, 8
  %58 = trunc i32 %57 to i8
  %59 = load ptr, ptr %4, align 8
  %60 = getelementptr inbounds %struct.PHP_MD5_CTX, ptr %59, i32 0, i32 6
  %61 = getelementptr inbounds [64 x i8], ptr %60, i64 0, i64 57
  store i8 %58, ptr %61, align 1
  %62 = load ptr, ptr %4, align 8
  %63 = getelementptr inbounds %struct.PHP_MD5_CTX, ptr %62, i32 0, i32 0
  %64 = load i32, ptr %63, align 4
  %65 = lshr i32 %64, 16
  %66 = trunc i32 %65 to i8
  %67 = load ptr, ptr %4, align 8
  %68 = getelementptr inbounds %struct.PHP_MD5_CTX, ptr %67, i32 0, i32 6
  %69 = getelementptr inbounds [64 x i8], ptr %68, i64 0, i64 58
  store i8 %66, ptr %69, align 2
  %70 = load ptr, ptr %4, align 8
  %71 = getelementptr inbounds %struct.PHP_MD5_CTX, ptr %70, i32 0, i32 0
  %72 = load i32, ptr %71, align 4
  %73 = lshr i32 %72, 24
  %74 = trunc i32 %73 to i8
  %75 = load ptr, ptr %4, align 8
  %76 = getelementptr inbounds %struct.PHP_MD5_CTX, ptr %75, i32 0, i32 6
  %77 = getelementptr inbounds [64 x i8], ptr %76, i64 0, i64 59
  store i8 %74, ptr %77, align 1
  %78 = load ptr, ptr %4, align 8
  %79 = getelementptr inbounds %struct.PHP_MD5_CTX, ptr %78, i32 0, i32 1
  %80 = load i32, ptr %79, align 4
  %81 = trunc i32 %80 to i8
  %82 = load ptr, ptr %4, align 8
  %83 = getelementptr inbounds %struct.PHP_MD5_CTX, ptr %82, i32 0, i32 6
  %84 = getelementptr inbounds [64 x i8], ptr %83, i64 0, i64 60
  store i8 %81, ptr %84, align 4
  %85 = load ptr, ptr %4, align 8
  %86 = getelementptr inbounds %struct.PHP_MD5_CTX, ptr %85, i32 0, i32 1
  %87 = load i32, ptr %86, align 4
  %88 = lshr i32 %87, 8
  %89 = trunc i32 %88 to i8
  %90 = load ptr, ptr %4, align 8
  %91 = getelementptr inbounds %struct.PHP_MD5_CTX, ptr %90, i32 0, i32 6
  %92 = getelementptr inbounds [64 x i8], ptr %91, i64 0, i64 61
  store i8 %89, ptr %92, align 1
  %93 = load ptr, ptr %4, align 8
  %94 = getelementptr inbounds %struct.PHP_MD5_CTX, ptr %93, i32 0, i32 1
  %95 = load i32, ptr %94, align 4
  %96 = lshr i32 %95, 16
  %97 = trunc i32 %96 to i8
  %98 = load ptr, ptr %4, align 8
  %99 = getelementptr inbounds %struct.PHP_MD5_CTX, ptr %98, i32 0, i32 6
  %100 = getelementptr inbounds [64 x i8], ptr %99, i64 0, i64 62
  store i8 %97, ptr %100, align 2
  %101 = load ptr, ptr %4, align 8
  %102 = getelementptr inbounds %struct.PHP_MD5_CTX, ptr %101, i32 0, i32 1
  %103 = load i32, ptr %102, align 4
  %104 = lshr i32 %103, 24
  %105 = trunc i32 %104 to i8
  %106 = load ptr, ptr %4, align 8
  %107 = getelementptr inbounds %struct.PHP_MD5_CTX, ptr %106, i32 0, i32 6
  %108 = getelementptr inbounds [64 x i8], ptr %107, i64 0, i64 63
  store i8 %105, ptr %108, align 1
  %109 = load ptr, ptr %4, align 8
  %110 = load ptr, ptr %4, align 8
  %111 = getelementptr inbounds %struct.PHP_MD5_CTX, ptr %110, i32 0, i32 6
  %112 = getelementptr inbounds [64 x i8], ptr %111, i64 0, i64 0
  %113 = call ptr @body(ptr noundef %109, ptr noundef %112, i64 noundef 64)
  %114 = load ptr, ptr %4, align 8
  %115 = getelementptr inbounds %struct.PHP_MD5_CTX, ptr %114, i32 0, i32 2
  %116 = load i32, ptr %115, align 4
  %117 = trunc i32 %116 to i8
  %118 = load ptr, ptr %3, align 8
  %119 = getelementptr inbounds i8, ptr %118, i64 0
  store i8 %117, ptr %119, align 1
  %120 = load ptr, ptr %4, align 8
  %121 = getelementptr inbounds %struct.PHP_MD5_CTX, ptr %120, i32 0, i32 2
  %122 = load i32, ptr %121, align 4
  %123 = lshr i32 %122, 8
  %124 = trunc i32 %123 to i8
  %125 = load ptr, ptr %3, align 8
  %126 = getelementptr inbounds i8, ptr %125, i64 1
  store i8 %124, ptr %126, align 1
  %127 = load ptr, ptr %4, align 8
  %128 = getelementptr inbounds %struct.PHP_MD5_CTX, ptr %127, i32 0, i32 2
  %129 = load i32, ptr %128, align 4
  %130 = lshr i32 %129, 16
  %131 = trunc i32 %130 to i8
  %132 = load ptr, ptr %3, align 8
  %133 = getelementptr inbounds i8, ptr %132, i64 2
  store i8 %131, ptr %133, align 1
  %134 = load ptr, ptr %4, align 8
  %135 = getelementptr inbounds %struct.PHP_MD5_CTX, ptr %134, i32 0, i32 2
  %136 = load i32, ptr %135, align 4
  %137 = lshr i32 %136, 24
  %138 = trunc i32 %137 to i8
  %139 = load ptr, ptr %3, align 8
  %140 = getelementptr inbounds i8, ptr %139, i64 3
  store i8 %138, ptr %140, align 1
  %141 = load ptr, ptr %4, align 8
  %142 = getelementptr inbounds %struct.PHP_MD5_CTX, ptr %141, i32 0, i32 3
  %143 = load i32, ptr %142, align 4
  %144 = trunc i32 %143 to i8
  %145 = load ptr, ptr %3, align 8
  %146 = getelementptr inbounds i8, ptr %145, i64 4
  store i8 %144, ptr %146, align 1
  %147 = load ptr, ptr %4, align 8
  %148 = getelementptr inbounds %struct.PHP_MD5_CTX, ptr %147, i32 0, i32 3
  %149 = load i32, ptr %148, align 4
  %150 = lshr i32 %149, 8
  %151 = trunc i32 %150 to i8
  %152 = load ptr, ptr %3, align 8
  %153 = getelementptr inbounds i8, ptr %152, i64 5
  store i8 %151, ptr %153, align 1
  %154 = load ptr, ptr %4, align 8
  %155 = getelementptr inbounds %struct.PHP_MD5_CTX, ptr %154, i32 0, i32 3
  %156 = load i32, ptr %155, align 4
  %157 = lshr i32 %156, 16
  %158 = trunc i32 %157 to i8
  %159 = load ptr, ptr %3, align 8
  %160 = getelementptr inbounds i8, ptr %159, i64 6
  store i8 %158, ptr %160, align 1
  %161 = load ptr, ptr %4, align 8
  %162 = getelementptr inbounds %struct.PHP_MD5_CTX, ptr %161, i32 0, i32 3
  %163 = load i32, ptr %162, align 4
  %164 = lshr i32 %163, 24
  %165 = trunc i32 %164 to i8
  %166 = load ptr, ptr %3, align 8
  %167 = getelementptr inbounds i8, ptr %166, i64 7
  store i8 %165, ptr %167, align 1
  %168 = load ptr, ptr %4, align 8
  %169 = getelementptr inbounds %struct.PHP_MD5_CTX, ptr %168, i32 0, i32 4
  %170 = load i32, ptr %169, align 4
  %171 = trunc i32 %170 to i8
  %172 = load ptr, ptr %3, align 8
  %173 = getelementptr inbounds i8, ptr %172, i64 8
  store i8 %171, ptr %173, align 1
  %174 = load ptr, ptr %4, align 8
  %175 = getelementptr inbounds %struct.PHP_MD5_CTX, ptr %174, i32 0, i32 4
  %176 = load i32, ptr %175, align 4
  %177 = lshr i32 %176, 8
  %178 = trunc i32 %177 to i8
  %179 = load ptr, ptr %3, align 8
  %180 = getelementptr inbounds i8, ptr %179, i64 9
  store i8 %178, ptr %180, align 1
  %181 = load ptr, ptr %4, align 8
  %182 = getelementptr inbounds %struct.PHP_MD5_CTX, ptr %181, i32 0, i32 4
  %183 = load i32, ptr %182, align 4
  %184 = lshr i32 %183, 16
  %185 = trunc i32 %184 to i8
  %186 = load ptr, ptr %3, align 8
  %187 = getelementptr inbounds i8, ptr %186, i64 10
  store i8 %185, ptr %187, align 1
  %188 = load ptr, ptr %4, align 8
  %189 = getelementptr inbounds %struct.PHP_MD5_CTX, ptr %188, i32 0, i32 4
  %190 = load i32, ptr %189, align 4
  %191 = lshr i32 %190, 24
  %192 = trunc i32 %191 to i8
  %193 = load ptr, ptr %3, align 8
  %194 = getelementptr inbounds i8, ptr %193, i64 11
  store i8 %192, ptr %194, align 1
  %195 = load ptr, ptr %4, align 8
  %196 = getelementptr inbounds %struct.PHP_MD5_CTX, ptr %195, i32 0, i32 5
  %197 = load i32, ptr %196, align 4
  %198 = trunc i32 %197 to i8
  %199 = load ptr, ptr %3, align 8
  %200 = getelementptr inbounds i8, ptr %199, i64 12
  store i8 %198, ptr %200, align 1
  %201 = load ptr, ptr %4, align 8
  %202 = getelementptr inbounds %struct.PHP_MD5_CTX, ptr %201, i32 0, i32 5
  %203 = load i32, ptr %202, align 4
  %204 = lshr i32 %203, 8
  %205 = trunc i32 %204 to i8
  %206 = load ptr, ptr %3, align 8
  %207 = getelementptr inbounds i8, ptr %206, i64 13
  store i8 %205, ptr %207, align 1
  %208 = load ptr, ptr %4, align 8
  %209 = getelementptr inbounds %struct.PHP_MD5_CTX, ptr %208, i32 0, i32 5
  %210 = load i32, ptr %209, align 4
  %211 = lshr i32 %210, 16
  %212 = trunc i32 %211 to i8
  %213 = load ptr, ptr %3, align 8
  %214 = getelementptr inbounds i8, ptr %213, i64 14
  store i8 %212, ptr %214, align 1
  %215 = load ptr, ptr %4, align 8
  %216 = getelementptr inbounds %struct.PHP_MD5_CTX, ptr %215, i32 0, i32 5
  %217 = load i32, ptr %216, align 4
  %218 = lshr i32 %217, 24
  %219 = trunc i32 %218 to i8
  %220 = load ptr, ptr %3, align 8
  %221 = getelementptr inbounds i8, ptr %220, i64 15
  store i8 %219, ptr %221, align 1
  %222 = load ptr, ptr %4, align 8
  call void @explicit_bzero(ptr noundef %222, i64 noundef 152) #9
  ret void
}