; Function Attrs: nounwind uwtable
define void @PHP_MD5Final(ptr nocapture noundef writeonly %0, ptr noundef %1) local_unnamed_addr #1 {
  %3 = load i32, ptr %1, align 4
  %4 = and i32 %3, 63
  %5 = getelementptr inbounds i8, ptr %1, i64 24
  %6 = add nuw nsw i32 %4, 1
  %7 = zext nneg i32 %4 to i64
  %8 = getelementptr inbounds [64 x i8], ptr %5, i64 0, i64 %7
  store i8 -128, ptr %8, align 1
  %9 = xor i32 %4, 63
  %10 = icmp ult i32 %9, 8
  br i1 %10, label %11, label %16

11:                                               ; preds = %2
  %12 = zext nneg i32 %6 to i64
  %13 = getelementptr inbounds [64 x i8], ptr %5, i64 0, i64 %12
  %14 = zext nneg i32 %9 to i64
  tail call void @llvm.memset.p0.i64(ptr nonnull align 1 %13, i8 0, i64 %14, i1 false)
  %15 = tail call fastcc ptr @body(ptr noundef nonnull %1, ptr noundef nonnull %5, i64 noundef 64)
  br label %16

16:                                               ; preds = %11, %2
  %.064 = phi i32 [ 0, %11 ], [ %6, %2 ]
  %.0 = phi i32 [ 64, %11 ], [ %9, %2 ]
  %17 = zext nneg i32 %.064 to i64
  %18 = getelementptr inbounds [64 x i8], ptr %5, i64 0, i64 %17
  %19 = add nsw i32 %.0, -8
  %20 = zext nneg i32 %19 to i64
  tail call void @llvm.memset.p0.i64(ptr nonnull align 1 %18, i8 0, i64 %20, i1 false)
  %21 = load i32, ptr %1, align 4
  %22 = shl i32 %21, 3
  store i32 %22, ptr %1, align 4
  %23 = trunc i32 %22 to i8
  %24 = getelementptr inbounds i8, ptr %1, i64 80
  store i8 %23, ptr %24, align 4
  %25 = lshr i32 %22, 8
  %26 = trunc i32 %25 to i8
  %27 = getelementptr inbounds i8, ptr %1, i64 81
  store i8 %26, ptr %27, align 1
  %28 = lshr i32 %22, 16
  %29 = trunc i32 %28 to i8
  %30 = getelementptr inbounds i8, ptr %1, i64 82
  store i8 %29, ptr %30, align 2
  %31 = lshr i32 %22, 24
  %32 = trunc i32 %31 to i8
  %33 = getelementptr inbounds i8, ptr %1, i64 83
  store i8 %32, ptr %33, align 1
  %34 = getelementptr inbounds i8, ptr %1, i64 4
  %35 = load i32, ptr %34, align 4
  %36 = trunc i32 %35 to i8
  %37 = getelementptr inbounds i8, ptr %1, i64 84
  store i8 %36, ptr %37, align 4
  %38 = lshr i32 %35, 8
  %39 = trunc i32 %38 to i8
  %40 = getelementptr inbounds i8, ptr %1, i64 85
  store i8 %39, ptr %40, align 1
  %41 = lshr i32 %35, 16
  %42 = trunc i32 %41 to i8
  %43 = getelementptr inbounds i8, ptr %1, i64 86
  store i8 %42, ptr %43, align 2
  %44 = lshr i32 %35, 24
  %45 = trunc i32 %44 to i8
  %46 = getelementptr inbounds i8, ptr %1, i64 87
  store i8 %45, ptr %46, align 1
  %47 = tail call fastcc ptr @body(ptr noundef nonnull %1, ptr noundef nonnull %5, i64 noundef 64)
  %48 = getelementptr inbounds i8, ptr %1, i64 8
  %49 = load i32, ptr %48, align 4
  %50 = trunc i32 %49 to i8
  store i8 %50, ptr %0, align 1
  %51 = load i32, ptr %48, align 4
  %52 = lshr i32 %51, 8
  %53 = trunc i32 %52 to i8
  %54 = getelementptr inbounds i8, ptr %0, i64 1
  store i8 %53, ptr %54, align 1
  %55 = load i32, ptr %48, align 4
  %56 = lshr i32 %55, 16
  %57 = trunc i32 %56 to i8
  %58 = getelementptr inbounds i8, ptr %0, i64 2
  store i8 %57, ptr %58, align 1
  %59 = load i32, ptr %48, align 4
  %60 = lshr i32 %59, 24
  %61 = trunc i32 %60 to i8
  %62 = getelementptr inbounds i8, ptr %0, i64 3
  store i8 %61, ptr %62, align 1
  %63 = getelementptr inbounds i8, ptr %1, i64 12
  %64 = load i32, ptr %63, align 4
  %65 = trunc i32 %64 to i8
  %66 = getelementptr inbounds i8, ptr %0, i64 4
  store i8 %65, ptr %66, align 1
  %67 = load i32, ptr %63, align 4
  %68 = lshr i32 %67, 8
  %69 = trunc i32 %68 to i8
  %70 = getelementptr inbounds i8, ptr %0, i64 5
  store i8 %69, ptr %70, align 1
  %71 = load i32, ptr %63, align 4
  %72 = lshr i32 %71, 16
  %73 = trunc i32 %72 to i8
  %74 = getelementptr inbounds i8, ptr %0, i64 6
  store i8 %73, ptr %74, align 1
  %75 = load i32, ptr %63, align 4
  %76 = lshr i32 %75, 24
  %77 = trunc i32 %76 to i8
  %78 = getelementptr inbounds i8, ptr %0, i64 7
  store i8 %77, ptr %78, align 1
  %79 = getelementptr inbounds i8, ptr %1, i64 16
  %80 = load i32, ptr %79, align 4
  %81 = trunc i32 %80 to i8
  %82 = getelementptr inbounds i8, ptr %0, i64 8
  store i8 %81, ptr %82, align 1
  %83 = load i32, ptr %79, align 4
  %84 = lshr i32 %83, 8
  %85 = trunc i32 %84 to i8
  %86 = getelementptr inbounds i8, ptr %0, i64 9
  store i8 %85, ptr %86, align 1
  %87 = load i32, ptr %79, align 4
  %88 = lshr i32 %87, 16
  %89 = trunc i32 %88 to i8
  %90 = getelementptr inbounds i8, ptr %0, i64 10
  store i8 %89, ptr %90, align 1
  %91 = load i32, ptr %79, align 4
  %92 = lshr i32 %91, 24
  %93 = trunc i32 %92 to i8
  %94 = getelementptr inbounds i8, ptr %0, i64 11
  store i8 %93, ptr %94, align 1
  %95 = getelementptr inbounds i8, ptr %1, i64 20
  %96 = load i32, ptr %95, align 4
  %97 = trunc i32 %96 to i8
  %98 = getelementptr inbounds i8, ptr %0, i64 12
  store i8 %97, ptr %98, align 1
  %99 = load i32, ptr %95, align 4
  %100 = lshr i32 %99, 8
  %101 = trunc i32 %100 to i8
  %102 = getelementptr inbounds i8, ptr %0, i64 13
  store i8 %101, ptr %102, align 1
  %103 = load i32, ptr %95, align 4
  %104 = lshr i32 %103, 16
  %105 = trunc i32 %104 to i8
  %106 = getelementptr inbounds i8, ptr %0, i64 14
  store i8 %105, ptr %106, align 1
  %107 = load i32, ptr %95, align 4
  %108 = lshr i32 %107, 24
  %109 = trunc i32 %108 to i8
  %110 = getelementptr inbounds i8, ptr %0, i64 15
  store i8 %109, ptr %110, align 1
  tail call void @explicit_bzero(ptr noundef nonnull %1, i64 noundef 152) #11
  ret void
}